target datalayout = "e-m:e-p270:32:32-p271:32:32-p272:64:64-i64:64-i128:128-f80:128-n8:16:32:64-S128"
target triple = "x86_64-pc-linux-gnu"

%struct.SDL_DialogFileFilter = type { ptr, ptr }

@.str.1 = private unnamed_addr constant [11 x i8] c"%s%s%s%s%s\00", align 1

; Function Attrs: nounwind uwtable
define hidden ptr @convert_filter(ptr %0, ptr %1, ptr noundef %2, ptr noundef %3, ptr noundef %4, ptr noundef %5, ptr noundef %6, ptr noundef %7, ptr noundef %8) #0 {
  %10 = alloca ptr, align 8
  %11 = alloca %struct.SDL_DialogFileFilter, align 8
  %12 = alloca ptr, align 8
  %13 = alloca ptr, align 8
  %14 = alloca ptr, align 8
  %15 = alloca ptr, align 8
  %16 = alloca ptr, align 8
  %17 = alloca ptr, align 8
  %18 = alloca ptr, align 8
  %19 = alloca ptr, align 8
  %20 = alloca ptr, align 8
  %21 = alloca i64, align 8
  %22 = alloca ptr, align 8
  %23 = alloca i32, align 4
  %24 = getelementptr inbounds nuw { ptr, ptr }, ptr %11, i32 0, i32 0
  store ptr %0, ptr %24, align 8
  %25 = getelementptr inbounds nuw { ptr, ptr }, ptr %11, i32 0, i32 1
  store ptr %1, ptr %25, align 8
  store ptr %2, ptr %12, align 8
  store ptr %3, ptr %13, align 8
  store ptr %4, ptr %14, align 8
  store ptr %5, ptr %15, align 8
  store ptr %6, ptr %16, align 8
  store ptr %7, ptr %17, align 8
  store ptr %8, ptr %18, align 8
  call void @llvm.lifetime.start.p0(i64 8, ptr %19) #4
  call void @llvm.lifetime.start.p0(i64 8, ptr %20) #4
  call void @llvm.lifetime.start.p0(i64 8, ptr %21) #4
  call void @llvm.lifetime.start.p0(i64 8, ptr %22) #4
  %26 = getelementptr inbounds nuw %struct.SDL_DialogFileFilter, ptr %11, i32 0, i32 1
  %27 = load ptr, ptr %26, align 8
  %28 = load ptr, ptr %16, align 8
  %29 = load ptr, ptr %17, align 8
  %30 = load ptr, ptr %18, align 8
  %31 = call ptr @convert_ext_list(ptr noundef %27, ptr noundef %28, ptr noundef %29, ptr noundef %30)
  store ptr %31, ptr %22, align 8
  %32 = load ptr, ptr %22, align 8
  %33 = icmp ne ptr %32, null
  br i1 %33, label %35, label %34

34:                                               ; preds = %9
  store ptr null, ptr %10, align 8
  store i32 1, ptr %23, align 4
  br label %87

35:                                               ; preds = %9
  %36 = load ptr, ptr %12, align 8
  %37 = icmp ne ptr %36, null
  br i1 %37, label %38, label %43

38:                                               ; preds = %35
  %39 = load ptr, ptr %12, align 8
  %40 = getelementptr inbounds nuw %struct.SDL_DialogFileFilter, ptr %11, i32 0, i32 0
  %41 = load ptr, ptr %40, align 8
  %42 = call ptr %39(ptr noundef %41)
  store ptr %42, ptr %20, align 8
  br label %47

43:                                               ; preds = %35
  %44 = getelementptr inbounds nuw %struct.SDL_DialogFileFilter, ptr %11, i32 0, i32 0
  %45 = load ptr, ptr %44, align 8
  %46 = call noalias ptr @SDL_strdup_REAL(ptr noundef %45)
  store ptr %46, ptr %20, align 8
  br label %47

47:                                               ; preds = %43, %38
  %48 = load ptr, ptr %20, align 8
  %49 = icmp ne ptr %48, null
  br i1 %49, label %52, label %50

50:                                               ; preds = %47
  %51 = load ptr, ptr %22, align 8
  call void @SDL_free_REAL(ptr noundef %51)
  store ptr null, ptr %10, align 8
  store i32 1, ptr %23, align 4
  br label %87

52:                                               ; preds = %47
  %53 = load ptr, ptr %13, align 8
  %54 = call i64 @SDL_strlen_REAL(ptr noundef %53)
  %55 = load ptr, ptr %20, align 8
  %56 = call i64 @SDL_strlen_REAL(ptr noundef %55)
  %57 = add i64 %54, %56
  %58 = load ptr, ptr %14, align 8
  %59 = call i64 @SDL_strlen_REAL(ptr noundef %58)
  %60 = add i64 %57, %59
  %61 = load ptr, ptr %22, align 8
  %62 = call i64 @SDL_strlen_REAL(ptr noundef %61)
  %63 = add i64 %60, %62
  %64 = load ptr, ptr %15, align 8
  %65 = call i64 @SDL_strlen_REAL(ptr noundef %64)
  %66 = add i64 %63, %65
  %67 = add i64 %66, 1
  store i64 %67, ptr %21, align 8
  %68 = load i64, ptr %21, align 8
  %69 = call noalias ptr @SDL_malloc_REAL(i64 noundef %68)
  store ptr %69, ptr %19, align 8
  %70 = load ptr, ptr %19, align 8
  %71 = icmp ne ptr %70, null
  br i1 %71, label %75, label %72

72:                                               ; preds = %52
  %73 = load ptr, ptr %22, align 8
  call void @SDL_free_REAL(ptr noundef %73)
  %74 = load ptr, ptr %20, align 8
  call void @SDL_free_REAL(ptr noundef %74)
  store ptr null, ptr %10, align 8
  store i32 1, ptr %23, align 4
  br label %87

75:                                               ; preds = %52
  %76 = load ptr, ptr %19, align 8
  %77 = load i64, ptr %21, align 8
  %78 = load ptr, ptr %13, align 8
  %79 = load ptr, ptr %20, align 8
  %80 = load ptr, ptr %14, align 8
  %81 = load ptr, ptr %22, align 8
  %82 = load ptr, ptr %15, align 8
  %83 = call i32 (ptr, i64, ptr, ...) @SDL_snprintf_REAL(ptr noundef %76, i64 noundef %77, ptr noundef @.str.1, ptr noundef %78, ptr noundef %79, ptr noundef %80, ptr noundef %81, ptr noundef %82)
  %84 = load ptr, ptr %22, align 8
  call void @SDL_free_REAL(ptr noundef %84)
  %85 = load ptr, ptr %20, align 8
  call void @SDL_free_REAL(ptr noundef %85)
  %86 = load ptr, ptr %19, align 8
  store ptr %86, ptr %10, align 8
  store i32 1, ptr %23, align 4
  br label %87

87:                                               ; preds = %75, %72, %50, %34
  call void @llvm.lifetime.end.p0(i64 8, ptr %22) #4
  call void @llvm.lifetime.end.p0(i64 8, ptr %21) #4
  call void @llvm.lifetime.end.p0(i64 8, ptr %20) #4
  call void @llvm.lifetime.end.p0(i64 8, ptr %19) #4
  %88 = load ptr, ptr %10, align 8
  ret ptr %88
}