; Function Attrs: nounwind uwtable
define hidden ptr @convert_filter(ptr %0, ptr %1, ptr noundef readonly captures(address_is_null) %2, ptr noundef %3, ptr noundef %4, ptr noundef %5, ptr noundef %6, ptr noundef %7, ptr noundef %8) local_unnamed_addr #0 {
  %10 = tail call ptr @convert_ext_list(ptr noundef %1, ptr noundef %6, ptr noundef %7, ptr noundef %8)
  %.not = icmp eq ptr %10, null
  br i1 %.not, label %31, label %11

11:                                               ; preds = %9
  %.not32 = icmp eq ptr %2, null
  br i1 %.not32, label %14, label %12

12:                                               ; preds = %11
  %13 = tail call ptr %2(ptr noundef %0) #4
  br label %16

14:                                               ; preds = %11
  %15 = tail call noalias ptr @SDL_strdup_REAL(ptr noundef %0) #4
  br label %16

16:                                               ; preds = %14, %12
  %.028 = phi ptr [ %13, %12 ], [ %15, %14 ]
  %.not33 = icmp eq ptr %.028, null
  br i1 %.not33, label %.sink.split, label %17

17:                                               ; preds = %16
  %18 = tail call i64 @SDL_strlen_REAL(ptr noundef %3) #4
  %19 = tail call i64 @SDL_strlen_REAL(ptr noundef nonnull %.028) #4
  %20 = tail call i64 @SDL_strlen_REAL(ptr noundef %4) #4
  %21 = tail call i64 @SDL_strlen_REAL(ptr noundef nonnull %10) #4
  %22 = tail call i64 @SDL_strlen_REAL(ptr noundef %5) #4
  %23 = add i64 %18, 1
  %24 = add i64 %23, %19
  %25 = add i64 %24, %20
  %26 = add i64 %25, %21
  %27 = add i64 %26, %22
  %28 = tail call noalias ptr @SDL_malloc_REAL(i64 noundef %27) #4
  %.not34 = icmp eq ptr %28, null
  br i1 %.not34, label %.sink.split.sink.split, label %29

29:                                               ; preds = %17
  %30 = tail call i32 (ptr, i64, ptr, ...) @SDL_snprintf_REAL(ptr noundef nonnull %28, i64 noundef %27, ptr noundef nonnull @.str.1, ptr noundef %3, ptr noundef nonnull %.028, ptr noundef %4, ptr noundef nonnull %10, ptr noundef %5) #4
  br label %.sink.split.sink.split

.sink.split.sink.split:                           ; preds = %17, %29
  %.0.ph.ph = phi ptr [ %28, %29 ], [ null, %17 ]
  tail call void @SDL_free_REAL(ptr noundef nonnull %10) #4
  br label %.sink.split

.sink.split:                                      ; preds = %.sink.split.sink.split, %16
  %.028.sink = phi ptr [ %10, %16 ], [ %.028, %.sink.split.sink.split ]
  %.0.ph = phi ptr [ null, %16 ], [ %.0.ph.ph, %.sink.split.sink.split ]
  tail call void @SDL_free_REAL(ptr noundef nonnull %.028.sink) #4
  br label %31

31:                                               ; preds = %.sink.split, %9
  %.0 = phi ptr [ null, %9 ], [ %.0.ph, %.sink.split ]
  ret ptr %.0
}